target datalayout = "e-m:e-p270:32:32-p271:32:32-p272:64:64-i64:64-i128:128-f80:128-n8:16:32:64-S128"
target triple = "x86_64-pc-linux-gnu"

%struct.mailmap_info = type { ptr, ptr }

; Function Attrs: nounwind uwtable
define internal void @free_mailmap_info(ptr noundef %0, ptr noundef %1) #0 {
  %3 = alloca ptr, align 8
  %4 = alloca ptr, align 8
  %5 = alloca ptr, align 8
  store ptr %0, ptr %3, align 8, !tbaa !29
  store ptr %1, ptr %4, align 8, !tbaa !9
  call void @llvm.lifetime.start.p0(i64 8, ptr %5) #7
  %6 = load ptr, ptr %3, align 8, !tbaa !29
  store ptr %6, ptr %5, align 8, !tbaa !44
  %7 = load ptr, ptr %5, align 8, !tbaa !44
  %8 = getelementptr inbounds nuw %struct.mailmap_info, ptr %7, i32 0, i32 0
  %9 = load ptr, ptr %8, align 8, !tbaa !46
  call void @free(ptr noundef %9) #7
  %10 = load ptr, ptr %5, align 8, !tbaa !44
  %11 = getelementptr inbounds nuw %struct.mailmap_info, ptr %10, i32 0, i32 1
  %12 = load ptr, ptr %11, align 8, !tbaa !48
  call void @free(ptr noundef %12) #7
  %13 = load ptr, ptr %5, align 8, !tbaa !44
  call void @free(ptr noundef %13) #7
  call void @llvm.lifetime.end.p0(i64 8, ptr %5) #7
  ret void
}