; Function Attrs: mustprogress nounwind willreturn uwtable
define internal void @free_mailmap_info(ptr noundef captures(none) %0, ptr readnone captures(none) %1) #10 {
  %3 = load ptr, ptr %0, align 8, !tbaa !24
  tail call void @free(ptr noundef %3) #11
  %4 = getelementptr inbounds nuw i8, ptr %0, i64 8
  %5 = load ptr, ptr %4, align 8, !tbaa !26
  tail call void @free(ptr noundef %5) #11
  tail call void @free(ptr noundef %0) #11
  ret void
}